; Function Attrs: mustprogress uwtable
define internal void @_ZN12_GLOBAL__N_143PrefetchTest_PrefetchToLocalCache_Heap_Test8TestBodyEv(ptr nocapture nonnull readnone align 8 %this) unnamed_addr #3 align 2 personality ptr @__gxx_personality_v0 {
_ZNSt10unique_ptrIA_cSt14default_deleteIS0_EED2Ev.exit:
  %call.i = tail call noalias noundef nonnull dereferenceable(204800) ptr @_Znam(i64 noundef 204800) #15, !noalias !6
  tail call void @llvm.memset.p0.i64(ptr noundef nonnull align 1 dereferenceable(204800) %call.i, i8 0, i64 204800, i1 false)
  tail call void @llvm.prefetch.p0(ptr nonnull %call.i, i32 0, i32 3, i32 1)
  tail call void @llvm.prefetch.p0(ptr nonnull %call.i, i32 0, i32 0, i32 1)
  tail call void asm sideeffect "prefetchw $0", "*m,~{dirflag},~{fpsr},~{flags}"(ptr nonnull elementtype(i8) %call.i) #13, !srcloc !5
  %add.ptr = getelementptr inbounds i8, ptr %call.i, i64 51200
  tail call void @llvm.prefetch.p0(ptr nonnull %add.ptr, i32 0, i32 3, i32 1)
  tail call void @llvm.prefetch.p0(ptr nonnull %add.ptr, i32 0, i32 0, i32 1)
  tail call void asm sideeffect "prefetchw $0", "*m,~{dirflag},~{fpsr},~{flags}"(ptr nonnull elementtype(i8) %add.ptr) #13, !srcloc !5
  %add.ptr11 = getelementptr inbounds i8, ptr %call.i, i64 102400
  tail call void @llvm.prefetch.p0(ptr nonnull %add.ptr11, i32 0, i32 3, i32 1)
  tail call void @llvm.prefetch.p0(ptr nonnull %add.ptr11, i32 0, i32 0, i32 1)
  tail call void asm sideeffect "prefetchw $0", "*m,~{dirflag},~{fpsr},~{flags}"(ptr nonnull elementtype(i8) %add.ptr11) #13, !srcloc !5
  %add.ptr17 = getelementptr inbounds i8, ptr %call.i, i64 153600
  tail call void @llvm.prefetch.p0(ptr nonnull %add.ptr17, i32 0, i32 3, i32 1)
  tail call void @llvm.prefetch.p0(ptr nonnull %add.ptr17, i32 0, i32 0, i32 1)
  tail call void asm sideeffect "prefetchw $0", "*m,~{dirflag},~{fpsr},~{flags}"(ptr nonnull elementtype(i8) %add.ptr17) #13, !srcloc !5
  tail call void @_ZdaPv(ptr noundef nonnull %call.i) #14
  ret void
}